; ModuleID = '51/491.c'
source_filename = "51/491.c"
target datalayout = "e-m:e-p270:32:32-p271:32:32-p272:64:64-i64:64-f80:128-n8:16:32:64-S128"
target triple = "x86_64-pc-linux-gnu"

@.str = private unnamed_addr constant [3 x i8] c"%d\00", align 1
@.str.1 = private unnamed_addr constant [4 x i8] c"%d\0A\00", align 1
@.str.2 = private unnamed_addr constant [3 x i8] c"NO\00", align 1

; Function Attrs: noinline nounwind uwtable
define dso_local i32 @main() #0 {
  %1 = alloca i32, align 4
  %2 = alloca i32, align 4
  %3 = alloca i32, align 4
  %4 = alloca i32, align 4
  %5 = alloca [500 x i32], align 16
  %6 = alloca i32, align 4
  %7 = alloca i32, align 4
  %8 = alloca [502 x i8], align 16
  %9 = alloca [6 x i8], align 1
  %10 = alloca [6 x i8], align 1
  %11 = alloca [500 x [6 x i8]], align 16
  %12 = alloca i32, align 4
  %13 = alloca i32, align 4
  store i32 0, i32* %1, align 4
  store i32 0, i32* %7, align 4
  %14 = call i32 (i8*, ...) @__isoc99_scanf(i8* getelementptr inbounds ([3 x i8], [3 x i8]* @.str, i64 0, i64 0), i32* %2)
  %15 = load i32, i32* %2, align 4
  %16 = sext i32 %15 to i64
  %17 = getelementptr inbounds [6 x i8], [6 x i8]* %9, i64 0, i64 %16
  store i8 0, i8* %17, align 1
  %18 = load i32, i32* %2, align 4
  %19 = sext i32 %18 to i64
  %20 = getelementptr inbounds [6 x i8], [6 x i8]* %10, i64 0, i64 %19
  store i8 0, i8* %20, align 1
  %21 = call i32 @getchar()
  %22 = getelementptr inbounds [502 x i8], [502 x i8]* %8, i64 0, i64 0
  %23 = call i32 (i8*, ...) bitcast (i32 (...)* @gets to i32 (i8*, ...)*)(i8* %22)
  %24 = getelementptr inbounds [502 x i8], [502 x i8]* %8, i64 0, i64 0
  %25 = call i64 @strlen(i8* %24) #3
  %26 = trunc i64 %25 to i32
  store i32 %26, i32* %12, align 4
  store i32 0, i32* %6, align 4
  store i32 0, i32* %3, align 4
  br label %27

27:                                               ; preds = %148, %0
  %28 = load i32, i32* %3, align 4
  %29 = load i32, i32* %12, align 4
  %30 = load i32, i32* %2, align 4
  %31 = sub nsw i32 %29, %30
  %32 = add nsw i32 %31, 1
  %33 = icmp slt i32 %28, %32
  br i1 %33, label %34, label %151

34:                                               ; preds = %27
  %35 = load i32, i32* %6, align 4
  %36 = sext i32 %35 to i64
  %37 = getelementptr inbounds [500 x i32], [500 x i32]* %5, i64 0, i64 %36
  store i32 0, i32* %37, align 4
  store i32 0, i32* %4, align 4
  br label %38

38:                                               ; preds = %55, %34
  %39 = load i32, i32* %4, align 4
  %40 = load i32, i32* %2, align 4
  %41 = icmp slt i32 %39, %40
  br i1 %41, label %42, label %58

42:                                               ; preds = %38
  %43 = load i32, i32* %3, align 4
  %44 = load i32, i32* %4, align 4
  %45 = add nsw i32 %43, %44
  %46 = sext i32 %45 to i64
  %47 = getelementptr inbounds [502 x i8], [502 x i8]* %8, i64 0, i64 %46
  %48 = load i8, i8* %47, align 1
  %49 = load i32, i32* %6, align 4
  %50 = sext i32 %49 to i64
  %51 = getelementptr inbounds [500 x [6 x i8]], [500 x [6 x i8]]* %11, i64 0, i64 %50
  %52 = load i32, i32* %4, align 4
  %53 = sext i32 %52 to i64
  %54 = getelementptr inbounds [6 x i8], [6 x i8]* %51, i64 0, i64 %53
  store i8 %48, i8* %54, align 1
  br label %55

55:                                               ; preds = %42
  %56 = load i32, i32* %4, align 4
  %57 = add nsw i32 %56, 1
  store i32 %57, i32* %4, align 4
  br label %38

58:                                               ; preds = %38
  %59 = load i32, i32* %6, align 4
  %60 = sext i32 %59 to i64
  %61 = getelementptr inbounds [500 x [6 x i8]], [500 x [6 x i8]]* %11, i64 0, i64 %60
  %62 = load i32, i32* %2, align 4
  %63 = sext i32 %62 to i64
  %64 = getelementptr inbounds [6 x i8], [6 x i8]* %61, i64 0, i64 %63
  store i8 0, i8* %64, align 1
  store i32 0, i32* %4, align 4
  br label %65

65:                                               ; preds = %106, %58
  %66 = load i32, i32* %4, align 4
  %67 = load i32, i32* %12, align 4
  %68 = load i32, i32* %2, align 4
  %69 = sub nsw i32 %67, %68
  %70 = add nsw i32 %69, 1
  %71 = icmp slt i32 %66, %70
  br i1 %71, label %72, label %109

72:                                               ; preds = %65
  store i32 0, i32* %13, align 4
  br label %73

73:                                               ; preds = %87, %72
  %74 = load i32, i32* %13, align 4
  %75 = load i32, i32* %2, align 4
  %76 = icmp slt i32 %74, %75
  br i1 %76, label %77, label %90

77:                                               ; preds = %73
  %78 = load i32, i32* %4, align 4
  %79 = load i32, i32* %13, align 4
  %80 = add nsw i32 %78, %79
  %81 = sext i32 %80 to i64
  %82 = getelementptr inbounds [502 x i8], [502 x i8]* %8, i64 0, i64 %81
  %83 = load i8, i8* %82, align 1
  %84 = load i32, i32* %13, align 4
  %85 = sext i32 %84 to i64
  %86 = getelementptr inbounds [6 x i8], [6 x i8]* %10, i64 0, i64 %85
  store i8 %83, i8* %86, align 1
  br label %87

87:                                               ; preds = %77
  %88 = load i32, i32* %13, align 4
  %89 = add nsw i32 %88, 1
  store i32 %89, i32* %13, align 4
  br label %73

90:                                               ; preds = %73
  %91 = getelementptr inbounds [6 x i8], [6 x i8]* %10, i64 0, i64 0
  %92 = load i32, i32* %6, align 4
  %93 = sext i32 %92 to i64
  %94 = getelementptr inbounds [500 x [6 x i8]], [500 x [6 x i8]]* %11, i64 0, i64 %93
  %95 = getelementptr inbounds [6 x i8], [6 x i8]* %94, i64 0, i64 0
  %96 = call i32 @strcmp(i8* %91, i8* %95) #3
  %97 = icmp ne i32 %96, 0
  br i1 %97, label %98, label %99

98:                                               ; preds = %90
  br label %105

99:                                               ; preds = %90
  %100 = load i32, i32* %6, align 4
  %101 = sext i32 %100 to i64
  %102 = getelementptr inbounds [500 x i32], [500 x i32]* %5, i64 0, i64 %101
  %103 = load i32, i32* %102, align 4
  %104 = add nsw i32 %103, 1
  store i32 %104, i32* %102, align 4
  br label %105

105:                                              ; preds = %99, %98
  br label %106

106:                                              ; preds = %105
  %107 = load i32, i32* %4, align 4
  %108 = add nsw i32 %107, 1
  store i32 %108, i32* %4, align 4
  br label %65

109:                                              ; preds = %65
  %110 = load i32, i32* %6, align 4
  %111 = sext i32 %110 to i64
  %112 = getelementptr inbounds [500 x i32], [500 x i32]* %5, i64 0, i64 %111
  %113 = load i32, i32* %112, align 4
  %114 = load i32, i32* %7, align 4
  %115 = icmp sgt i32 %113, %114
  br i1 %115, label %116, label %121

116:                                              ; preds = %109
  %117 = load i32, i32* %6, align 4
  %118 = sext i32 %117 to i64
  %119 = getelementptr inbounds [500 x i32], [500 x i32]* %5, i64 0, i64 %118
  %120 = load i32, i32* %119, align 4
  store i32 %120, i32* %7, align 4
  br label %121

121:                                              ; preds = %116, %109
  store i32 0, i32* %4, align 4
  br label %122

122:                                              ; preds = %142, %121
  %123 = load i32, i32* %4, align 4
  %124 = load i32, i32* %6, align 4
  %125 = icmp slt i32 %123, %124
  br i1 %125, label %126, label %145

126:                                              ; preds = %122
  %127 = load i32, i32* %4, align 4
  %128 = sext i32 %127 to i64
  %129 = getelementptr inbounds [500 x [6 x i8]], [500 x [6 x i8]]* %11, i64 0, i64 %128
  %130 = getelementptr inbounds [6 x i8], [6 x i8]* %129, i64 0, i64 0
  %131 = load i32, i32* %6, align 4
  %132 = sext i32 %131 to i64
  %133 = getelementptr inbounds [500 x [6 x i8]], [500 x [6 x i8]]* %11, i64 0, i64 %132
  %134 = getelementptr inbounds [6 x i8], [6 x i8]* %133, i64 0, i64 0
  %135 = call i32 @strcmp(i8* %130, i8* %134) #3
  %136 = icmp ne i32 %135, 0
  br i1 %136, label %137, label %138

137:                                              ; preds = %126
  br label %141

138:                                              ; preds = %126
  %139 = load i32, i32* %6, align 4
  %140 = add nsw i32 %139, -1
  store i32 %140, i32* %6, align 4
  br label %145

141:                                              ; preds = %137
  br label %142

142:                                              ; preds = %141
  %143 = load i32, i32* %4, align 4
  %144 = add nsw i32 %143, 1
  store i32 %144, i32* %4, align 4
  br label %122

145:                                              ; preds = %138, %122
  %146 = load i32, i32* %6, align 4
  %147 = add nsw i32 %146, 1
  store i32 %147, i32* %6, align 4
  br label %148

148:                                              ; preds = %145
  %149 = load i32, i32* %3, align 4
  %150 = add nsw i32 %149, 1
  store i32 %150, i32* %3, align 4
  br label %27

151:                                              ; preds = %27
  store i32 0, i32* %4, align 4
  %152 = load i32, i32* %7, align 4
  %153 = icmp ne i32 %152, 1
  br i1 %153, label %154, label %179

154:                                              ; preds = %151
  %155 = load i32, i32* %7, align 4
  %156 = call i32 (i8*, ...) @printf(i8* getelementptr inbounds ([4 x i8], [4 x i8]* @.str.1, i64 0, i64 0), i32 %155)
  store i32 0, i32* %3, align 4
  br label %157

157:                                              ; preds = %175, %154
  %158 = load i32, i32* %3, align 4
  %159 = load i32, i32* %6, align 4
  %160 = icmp slt i32 %158, %159
  br i1 %160, label %161, label %178

161:                                              ; preds = %157
  %162 = load i32, i32* %3, align 4
  %163 = sext i32 %162 to i64
  %164 = getelementptr inbounds [500 x i32], [500 x i32]* %5, i64 0, i64 %163
  %165 = load i32, i32* %164, align 4
  %166 = load i32, i32* %7, align 4
  %167 = icmp eq i32 %165, %166
  br i1 %167, label %168, label %174

168:                                              ; preds = %161
  %169 = load i32, i32* %3, align 4
  %170 = sext i32 %169 to i64
  %171 = getelementptr inbounds [500 x [6 x i8]], [500 x [6 x i8]]* %11, i64 0, i64 %170
  %172 = getelementptr inbounds [6 x i8], [6 x i8]* %171, i64 0, i64 0
  %173 = call i32 @puts(i8* %172)
  br label %174

174:                                              ; preds = %168, %161
  br label %175

175:                                              ; preds = %174
  %176 = load i32, i32* %3, align 4
  %177 = add nsw i32 %176, 1
  store i32 %177, i32* %3, align 4
  br label %157

178:                                              ; preds = %157
  br label %181

179:                                              ; preds = %151
  %180 = call i32 (i8*, ...) @printf(i8* getelementptr inbounds ([3 x i8], [3 x i8]* @.str.2, i64 0, i64 0))
  br label %181

181:                                              ; preds = %179, %178
  ret i32 0
}

declare dso_local i32 @__isoc99_scanf(i8*, ...) #1

declare dso_local i32 @getchar() #1

declare dso_local i32 @gets(...) #1

; Function Attrs: nounwind readonly
declare dso_local i64 @strlen(i8*) #2

; Function Attrs: nounwind readonly
declare dso_local i32 @strcmp(i8*, i8*) #2

declare dso_local i32 @printf(i8*, ...) #1

declare dso_local i32 @puts(i8*) #1


!llvm.module.flags = !{!0}
!llvm.ident = !{!1}

!0 = !{i32 1, !"wchar_size", i32 4}
!1 = !{!"clang version 10.0.0-4ubuntu1 "}
